(dp0
S'b'
p1
(lp2
(iTFClasses
TF
p3
(dp4
S'SingleBinFunc'
p5
(iTFClasses
function
p6
(dp7
S'DG_rel_weight'
p8
F0.7
sS'par_values'
p9
(lp10
F70.10053709610862
aF44.59887508855198
aF8.197382345637383
aF25.227577834942117
aF22.770451835755324
asS'DG_mean'
p11
(lp12
S'[1]'
p13
aS'[3]'
p14
asS'par_errors'
p15
(lp16
F11.208801775678943
aF0.5638355413956084
aF0.8454924432881312
aF50.2275935257227
aF29.82140637966685
asS'par_limits'
p17
(lp18
(I1
F0.0
F2000.0
tp19
a(I2
F0.0
F2000.0
tp20
a(I3
F0.0
F2000.0
tp21
a(I4
F0.0
F2000.0
tp22
asS'Is_DG'
p23
I01
sS'str'
p24
S'[0]*(0.7*exp(-0.5*((x-([1]))/([2]))**2)+(1-0.7)*exp(-0.5*((x-([3]))/([2]+[4]))**2))'
p25
sS'par_initials'
p26
(lp27
S'0'
p28
aS'1.1*mean'
p29
aS'1.0*rms'
p30
aS'0.7*mean'
p31
aS'0.5*rms'
p32
asS'fitrange'
p33
(F30.1
F500.0
tp34
sS'DG_rms'
p35
(lp36
S'[2]'
p37
aS'[2]+[4]'
p38
asbsS'i_eta'
p39
I0
sS'particle'
p40
g1
sS'AcrossBinFuncs'
p41
(lp42
(iTFClasses
function
p43
(dp44
g15
(lp45
sg9
(lp46
sg17
(lp47
sg24
S'1'
p48
sg26
(lp49
sba(iTFClasses
function
p50
(dp51
g15
(lp52
F0.2604294731976149
aF0.0015546799704802903
asg9
(lp53
F0.7405627670707592
aF0.9964222617139962
asg17
(lp54
sg24
S'[0]+[1]*x'
p55
sg26
(lp56
S'0'
p57
ag48
asba(iTFClasses
function
p58
(dp59
g15
(lp60
F1.5303117915407243
aF0.10916862196161206
aF0.008169247404280086
asg9
(lp61
F5.0716855962624985
aF1.0459579831007018
aF-0.045543132659560705
asg17
(lp62
sg24
S'sqrt([0]*[0] + x*[1]*[1] + x*x*[2]*[2])'
p63
sg26
(lp64
g57
ag57
ag57
asba(iTFClasses
function
p65
(dp66
g15
(lp67
F0.43960104625612584
aF0.0026202926372580846
asg9
(lp68
F3.3578740897270962
aF0.9717702420867615
asg17
(lp69
sg24
g55
sg26
(lp70
g57
ag48
asba(iTFClasses
function
p71
(dp72
g15
(lp73
F2.136807824884471
aF0.08861007128014277
aF0.0023705717619047226
asg9
(lp74
F-5.875001120791631e-09
aF0.5202107061800727
aF0.11228888082373821
asg17
(lp75
sg24
g63
sg26
(lp76
g57
ag57
ag57
asbasba(iTFClasses
TF
p77
(dp78
g5
(iTFClasses
function
p79
(dp80
g8
F0.7
sg9
(lp81
F31.58206806665568
aF41.03766074537407
aF9.121349797399091
aF4.75175454539567e-11
aF36.830812636473034
asg11
(lp82
g13
ag14
asg15
(lp83
F1.7203921539513793
aF0.7459421401947424
aF0.8168765643993261
aF82.10641492753301
aF5.158541602348297
asg17
(lp84
g19
ag20
ag21
ag22
asg23
I01
sg24
g25
sg26
(lp85
g28
ag29
ag30
ag31
ag32
asg33
g34
sg35
(lp86
g37
ag38
asbsg39
I1
sg40
g1
sg41
(lp87
(iTFClasses
function
p88
(dp89
g15
(lp90
sg9
(lp91
sg17
(lp92
sg24
g48
sg26
(lp93
sba(iTFClasses
function
p94
(dp95
g15
(lp96
F0.4235086086731241
aF0.002599512589181092
asg9
(lp97
F1.1610841339706472
aF0.9899352508640262
asg17
(lp98
sg24
g55
sg26
(lp99
g57
ag48
asba(iTFClasses
function
p100
(dp101
g15
(lp102
F1.7423786510805548
aF0.194794534379869
aF0.00936865079893464
asg9
(lp103
F7.070704254906488
aF0.9654130600311803
aF0.06741914711010967
asg17
(lp104
sg24
g63
sg26
(lp105
g57
ag57
ag57
asba(iTFClasses
function
p106
(dp107
g15
(lp108
F0.7423828783699427
aF0.004471953255559573
asg9
(lp109
F5.2006133959974
aF0.9610944530303757
asg17
(lp110
sg24
g55
sg26
(lp111
g57
ag48
asba(iTFClasses
function
p112
(dp113
g15
(lp114
F2.640501606530111
aF0.11365262168459966
aF0.004704835814780023
asg9
(lp115
F-3.106753034780798e-05
aF0.6937031114580282
aF0.09724655539948358
asg17
(lp116
sg24
g63
sg26
(lp117
g57
ag57
ag57
asbasbas.