(dp0
S'b'
p1
(lp2
(iTFClasses
TF
p3
(dp4
S'SingleBinFunc'
p5
(iTFClasses
function
p6
(dp7
S'DG_rel_weight'
p8
F0.7
sS'par_values'
p9
(lp10
F3925.235480817517
aF28.744138155927246
aF6.867813576585946
aF18.524416998648043
aF5.8225202437256485e-08
asS'DG_mean'
p11
(lp12
S'[1]'
p13
aS'[3]'
p14
asS'par_errors'
p15
(lp16
F2447.6939066788195
aF3.6283840547120523
aF1.0061626776929344
aF24.235708131288668
aF24.634935542172887
asS'par_limits'
p17
(lp18
(I1
F0.0
F2000.0
tp19
a(I2
F0.0
F2000.0
tp20
a(I3
F0.0
F2000.0
tp21
a(I4
F0.0
F2000.0
tp22
asS'Is_DG'
p23
I01
sS'str'
p24
S'[0]*(0.7*exp(-0.5*((x-([1]))/([2]))**2)+(1-0.7)*exp(-0.5*((x-([3]))/([2]+[4]))**2))'
p25
sS'par_initials'
p26
(lp27
S'0'
p28
aS'1.1*mean'
p29
aS'1.0*rms'
p30
aS'0.7*mean'
p31
aS'0.5*rms'
p32
asS'fitrange'
p33
(F30.1
F500.0
tp34
sS'DG_rms'
p35
(lp36
S'[2]'
p37
aS'[2]+[4]'
p38
asbsS'i_eta'
p39
I0
sS'particle'
p40
g1
sS'AcrossBinFuncs'
p41
(lp42
(iTFClasses
function
p43
(dp44
g15
(lp45
sg9
(lp46
sg17
(lp47
sg24
S'1'
p48
sg26
(lp49
sba(iTFClasses
function
p50
(dp51
g15
(lp52
F0.058270368203991174
aF0.0005915159120616634
asg9
(lp53
F-4.785985705722395
aF0.9887992702315634
asg17
(lp54
sg24
S'[0]+[1]*x'
p55
sg26
(lp56
S'0'
p57
ag48
asba(iTFClasses
function
p58
(dp59
g15
(lp60
F0.3366112780640451
aF0.00584911429790342
aF0.0013073603902820376
asg9
(lp61
F-1.8491555446577055e-06
aF1.1363328167112954
aF0.04556179753846142
asg17
(lp62
sg24
S'sqrt([0]*[0] + x*[1]*[1] + x*x*[2]*[2])'
p63
sg26
(lp64
g57
ag57
ag57
asba(iTFClasses
function
p65
(dp66
g15
(lp67
F0.13628579669286559
aF0.0012121675343548296
asg9
(lp68
F-8.96714095576401
aF0.9504239784854017
asg17
(lp69
sg24
g55
sg26
(lp70
g57
ag48
asba(iTFClasses
function
p71
(dp72
g15
(lp73
F0.5781413249264928
aF0.06140384875253304
aF0.0005619166411482314
asg9
(lp74
F1.6410003284645724
aF2.182118306188319e-11
aF0.15071033104979556
asg17
(lp75
sg24
g63
sg26
(lp76
g57
ag57
ag57
asbasba(iTFClasses
TF
p77
(dp78
g5
(iTFClasses
function
p79
(dp80
g8
F0.7
sg9
(lp81
F1975.4333912130646
aF31.456293373861467
aF4.950783225759481
aF23.4095615140969
aF9.936450551251141e-06
asg11
(lp82
g13
ag14
asg15
(lp83
F610.8854485870336
aF1.5887275339004923
aF0.7146398450912361
aF10.024582221415445
aF11.0027616065253
asg17
(lp84
g19
ag20
ag21
ag22
asg23
I01
sg24
g25
sg26
(lp85
g28
ag29
ag30
ag31
ag32
asg33
g34
sg35
(lp86
g37
ag38
asbsg39
I1
sg40
g1
sg41
(lp87
(iTFClasses
function
p88
(dp89
g15
(lp90
sg9
(lp91
sg17
(lp92
sg24
g48
sg26
(lp93
sba(iTFClasses
function
p94
(dp95
g15
(lp96
F0.09146881742349466
aF0.0009488513697283649
asg9
(lp97
F-3.738275300847627
aF0.9679461003528042
asg17
(lp98
sg24
g55
sg26
(lp99
g57
ag48
asba(iTFClasses
function
p100
(dp101
g15
(lp102
F0.5401868774011073
aF0.009820644143824797
aF0.0019404146947151586
asg9
(lp103
F1.8398786878218e-06
aF1.3032776572608604
aF0.06019296005155211
asg17
(lp104
sg24
g63
sg26
(lp105
g57
ag57
ag57
asba(iTFClasses
function
p106
(dp107
g15
(lp108
F0.23564342200985017
aF0.0020547835332283895
asg9
(lp109
F-8.489482586929048
aF0.9376704961517415
asg17
(lp110
sg24
g55
sg26
(lp111
g57
ag48
asba(iTFClasses
function
p112
(dp113
g15
(lp114
F1.200799879893849
aF0.08683990218265726
aF0.0005968438973903427
asg9
(lp115
F-5.332311088211696e-12
aF3.0644143286094946e-13
aF0.13680874675856114
asg17
(lp116
sg24
g63
sg26
(lp117
g57
ag57
ag57
asbasbasS'l'
p118
(lp119
(iTFClasses
TF
p120
(dp121
g5
(iTFClasses
function
p122
(dp123
g8
F0.7
sg9
(lp124
F2166.3069188909694
aF30.29309011816961
aF4.914942486006657
aF35.938068207918676
aF1.8614174075451961
asg11
(lp125
g13
ag14
asg15
(lp126
F217.07205447413727
aF0.3909562318553661
aF0.6555234576158253
aF2.1234413717518557
aF1.3910402446169479
asg17
(lp127
g19
ag20
ag21
ag22
asg23
I01
sg24
g25
sg26
(lp128
g28
ag29
ag30
ag31
ag32
asg33
g34
sg35
(lp129
g37
ag38
asbsg39
I0
sg40
g118
sg41
(lp130
(iTFClasses
function
p131
(dp132
g15
(lp133
sg9
(lp134
sg17
(lp135
sg24
g48
sg26
(lp136
sba(iTFClasses
function
p137
(dp138
g15
(lp139
F0.06634856374096443
aF0.0007760714669400814
asg9
(lp140
F-1.7137673472790254
aF1.0273744628210761
asg17
(lp141
sg24
g55
sg26
(lp142
g57
ag48
asba(iTFClasses
function
p143
(dp144
g15
(lp145
F0.48240841631241144
aF0.03606284438189018
aF0.002746138651114698
asg9
(lp146
F2.661440717374493
aF0.8237796373810787
aF0.0550703536877289
asg17
(lp147
sg24
g63
sg26
(lp148
g57
ag57
ag57
asba(iTFClasses
function
p149
(dp150
g15
(lp151
F0.14748084609786216
aF0.001551503733327822
asg9
(lp152
F-6.029536146241528
aF1.0350145273715006
asg17
(lp153
sg24
g55
sg26
(lp154
g57
ag48
asba(iTFClasses
function
p155
(dp156
g15
(lp157
F4.597178839849924
aF0.06849429371830291
aF0.0045845231697916305
asg9
(lp158
F-0.7511835669272787
aF1.0803591068250396
aF0.0808868555574728
asg17
(lp159
sg24
g63
sg26
(lp160
g57
ag57
ag57
asbasba(iTFClasses
TF
p161
(dp162
g5
(iTFClasses
function
p163
(dp164
g8
F0.7
sg9
(lp165
F1402.4484257939037
aF31.020489587845645
aF6.145349904343567
aF37.17218745610362
aF1.6195238107181709
asg11
(lp166
g13
ag14
asg15
(lp167
F415.9750197730867
aF1.8647097014344283
aF1.4524381543432052
aF7.20999280439122
aF5.0041605671635185
asg17
(lp168
g19
ag20
ag21
ag22
asg23
I01
sg24
g25
sg26
(lp169
g28
ag29
ag30
ag31
ag32
asg33
g34
sg35
(lp170
g37
ag38
asbsg39
I1
sg40
g118
sg41
(lp171
(iTFClasses
function
p172
(dp173
g15
(lp174
sg9
(lp175
sg17
(lp176
sg24
g48
sg26
(lp177
sba(iTFClasses
function
p178
(dp179
g15
(lp180
F0.1069634962241443
aF0.0012147716732762487
asg9
(lp181
F-0.9288138142855841
aF1.0267149587428197
asg17
(lp182
sg24
g55
sg26
(lp183
g57
ag48
asba(iTFClasses
function
p184
(dp185
g15
(lp186
F0.48996469279834437
aF0.05772919631824491
aF0.004425953526768981
asg9
(lp187
F4.982185852100052
aF0.9403670176772225
aF0.0609098537067399
asg17
(lp188
sg24
g63
sg26
(lp189
g57
ag57
ag57
asba(iTFClasses
function
p190
(dp191
g15
(lp192
F0.245466605808452
aF0.0024669084274633376
asg9
(lp193
F-6.582305565733138
aF1.0229318345407283
asg17
(lp194
sg24
g55
sg26
(lp195
g57
ag48
asba(iTFClasses
function
p196
(dp197
g15
(lp198
F0.25124174618775375
aF0.29200107435703687
aF0.001324601802807636
asg9
(lp199
F5.946804181311911
aF-8.982001078003688e-07
aF0.12090783779271808
asg17
(lp200
sg24
g63
sg26
(lp201
g57
ag57
ag57
asbasbas.