(dp0
S'b'
p1
(lp2
(iTFClasses
TF
p3
(dp4
S'SingleBinFunc'
p5
(iTFClasses
function
p6
(dp7
S'DG_rel_weight'
p8
F0.7
sS'par_values'
p9
(lp10
F32432.7932546682
aF31.938195726640473
aF4.553888638653025
aF25.837934816018592
aF9.248726415764796
asS'DG_mean'
p11
(lp12
S'[1]'
p13
aS'[3]'
p14
asS'par_errors'
p15
(lp16
F99.18960027308643
aF0.03563924021882059
aF0.03967326314135988
aF0.35471799492903244
aF0.15040123914794634
asS'par_limits'
p17
(lp18
(I1
F0.0
F2000.0
tp19
a(I2
F0.0
F2000.0
tp20
a(I3
F0.0
F2000.0
tp21
a(I4
F0.0
F2000.0
tp22
asS'Is_DG'
p23
I01
sS'str'
p24
S'[0]*(0.7*exp(-0.5*((x-([1]))/([2]))**2)+(1-0.7)*exp(-0.5*((x-([3]))/([2]+[4]))**2))'
p25
sS'par_initials'
p26
(lp27
S'0'
p28
aS'1.1*mean'
p29
aS'1.0*rms'
p30
aS'0.7*mean'
p31
aS'0.5*rms'
p32
asS'fitrange'
p33
(F30.1
F500.0
tp34
sS'DG_rms'
p35
(lp36
S'[2]'
p37
aS'[2]+[4]'
p38
asbsS'i_eta'
p39
I0
sS'particle'
p40
g1
sS'AcrossBinFuncs'
p41
(lp42
(iTFClasses
function
p43
(dp44
g15
(lp45
sg9
(lp46
sg17
(lp47
sg24
S'1'
p48
sg26
(lp49
sba(iTFClasses
function
p50
(dp51
g15
(lp52
F0.015825215889112725
aF0.00017811863191472902
asg9
(lp53
F-4.40437530566667
aF1.0138750258813716
asg17
(lp54
sg24
S'[0]+[1]*x'
p55
sg26
(lp56
S'0'
p57
ag48
asba(iTFClasses
function
p58
(dp59
g15
(lp60
F0.0859357830760583
aF0.0014843445121269173
aF0.0003310268772141918
asg9
(lp61
F4.907833406592421e-11
aF1.078914362870894
aF0.05090778998309455
asg17
(lp62
sg24
S'sqrt([0]*[0] + x*[1]*[1] + x*x*[2]*[2])'
p63
sg26
(lp64
g57
ag57
ag57
asba(iTFClasses
function
p65
(dp66
g15
(lp67
F0.03646589099831491
aF0.0003652635125943225
asg9
(lp68
F-8.582705071548386
aF0.9595579927082268
asg17
(lp69
sg24
g55
sg26
(lp70
g57
ag48
asba(iTFClasses
function
p71
(dp72
g15
(lp73
F0.057813469263538114
aF0.013310315427473964
aF0.00016938862280379297
asg9
(lp74
F2.797072397335121
aF7.118193166995434e-08
aF0.11218603267601841
asg17
(lp75
sg24
g63
sg26
(lp76
g57
ag57
ag57
asbasba(iTFClasses
TF
p77
(dp78
g5
(iTFClasses
function
p79
(dp80
g8
F0.7
sg9
(lp81
F28953.59335939017
aF32.1574812770824
aF5.114043262560042
aF27.06673778688995
aF8.302424273905373
asg11
(lp82
g13
ag14
asg15
(lp83
F92.90676782960301
aF0.03894339256271806
aF0.0462321998245252
aF0.4281957987262164
aF0.1748365735765871
asg17
(lp84
g19
ag20
ag21
ag22
asg23
I01
sg24
g25
sg26
(lp85
g28
ag29
ag30
ag31
ag32
asg33
g34
sg35
(lp86
g37
ag38
asbsg39
I1
sg40
g1
sg41
(lp87
(iTFClasses
function
p88
(dp89
g15
(lp90
sg9
(lp91
sg17
(lp92
sg24
g48
sg26
(lp93
sba(iTFClasses
function
p94
(dp95
g15
(lp96
F0.02263356616720721
aF0.0002514263903597403
asg9
(lp97
F-4.467391070391198
aF1.0076783030950323
asg17
(lp98
sg24
g55
sg26
(lp99
g57
ag48
asba(iTFClasses
function
p100
(dp101
g15
(lp102
F0.10839236266496513
aF0.0020069661556876154
aF0.0005797139369425533
asg9
(lp103
F3.561022980248031e-08
aF1.2288838143451295
aF0.04394453206230391
asg17
(lp104
sg24
g63
sg26
(lp105
g57
ag57
ag57
asba(iTFClasses
function
p106
(dp107
g15
(lp108
F0.051727285771387424
aF0.0005135266648652886
asg9
(lp109
F-8.064483494718786
aF0.9393615954332349
asg17
(lp110
sg24
g55
sg26
(lp111
g57
ag48
asba(iTFClasses
function
p112
(dp113
g15
(lp114
F0.22265174814048325
aF0.017098246395785797
aF0.00014012270376557255
asg9
(lp115
F-1.0213458139901238e-08
aF-2.299477053498142e-10
aF0.10964844624034112
asg17
(lp116
sg24
g63
sg26
(lp117
g57
ag57
ag57
asbasbasS'l'
p118
(lp119
(iTFClasses
TF
p120
(dp121
g5
(iTFClasses
function
p122
(dp123
g8
F0.7
sg9
(lp124
F78499.68800777372
aF30.377960061450658
aF6.0937613709014515
aF20.354735868422846
aF10.117135879416317
asg11
(lp125
g13
ag14
asg15
(lp126
F311.48479867079215
aF0.05217091042430866
aF0.03748678892201429
aF0.36405560866692355
aF0.13587546039545106
asg17
(lp127
g19
ag20
ag21
ag22
asg23
I01
sg24
g25
sg26
(lp128
g28
ag29
ag30
ag31
ag32
asg33
g34
sg35
(lp129
g37
ag38
asbsg39
I0
sg40
g118
sg41
(lp130
(iTFClasses
function
p131
(dp132
g15
(lp133
sg9
(lp134
sg17
(lp135
sg24
g48
sg26
(lp136
sba(iTFClasses
function
p137
(dp138
g15
(lp139
F0.008978235044918015
aF0.000108142224784984
asg9
(lp140
F-1.9499375168673643
aF1.0223148951215033
asg17
(lp141
sg24
g55
sg26
(lp142
g57
ag48
asba(iTFClasses
function
p143
(dp144
g15
(lp145
F0.2830737201048998
aF0.00129215028064391
aF0.00024589925209709277
asg9
(lp146
F2.5306537342731777e-06
aF0.958969901107102
aF0.05930885910249239
asg17
(lp147
sg24
g63
sg26
(lp148
g57
ag57
ag57
asba(iTFClasses
function
p149
(dp150
g15
(lp151
F0.029246499015329896
aF0.00032765200297902664
asg9
(lp152
F-6.054888058030038
aF1.0066501904971665
asg17
(lp153
sg24
g55
sg26
(lp154
g57
ag48
asba(iTFClasses
function
p155
(dp156
g15
(lp157
F0.019126462160100426
aF0.05175803776866823
aF0.0001965200710646437
asg9
(lp158
F6.556291665303764
aF5.451593573270273e-08
aF0.08230947332912529
asg17
(lp159
sg24
g63
sg26
(lp160
g57
ag57
ag57
asbasba(iTFClasses
TF
p161
(dp162
g5
(iTFClasses
function
p163
(dp164
g8
F0.7
sg9
(lp165
F60310.22104149216
aF31.525828308609725
aF6.752592647078504
aF18.9658448005261
aF10.539914932335414
asg11
(lp166
g13
ag14
asg15
(lp167
F399.89933739267696
aF0.05038468121476569
aF0.04888698710237005
aF0.8464777830184413
aF0.31799783371327983
asg17
(lp168
g19
ag20
ag21
ag22
asg23
I01
sg24
g25
sg26
(lp169
g28
ag29
ag30
ag31
ag32
asg33
g34
sg35
(lp170
g37
ag38
asbsg39
I1
sg40
g118
sg41
(lp171
(iTFClasses
function
p172
(dp173
g15
(lp174
sg9
(lp175
sg17
(lp176
sg24
g48
sg26
(lp177
sba(iTFClasses
function
p178
(dp179
g15
(lp180
F0.014292439455823598
aF0.00019206030647553462
asg9
(lp181
F-1.5217337911521371
aF1.0248893391661114
asg17
(lp182
sg24
g55
sg26
(lp183
g57
ag48
asba(iTFClasses
function
p184
(dp185
g15
(lp186
F0.2171956050979564
aF0.0015811090506187052
aF0.0006201523179670284
asg9
(lp187
F2.1407978050735e-10
aF1.1717599142686328
aF0.0345884253401103
asg17
(lp188
sg24
g63
sg26
(lp189
g57
ag57
ag57
asba(iTFClasses
function
p190
(dp191
g15
(lp192
F0.04145351466737962
aF0.00045873782466597507
asg9
(lp193
F-5.262714395096787
aF0.9883422576185346
asg17
(lp194
sg24
g55
sg26
(lp195
g57
ag48
asba(iTFClasses
function
p196
(dp197
g15
(lp198
F0.03160019606701753
aF0.07398636086935911
aF0.0002454313870287591
asg9
(lp199
F5.430700726698099
aF2.3918397562591158e-08
aF0.09039148095779047
asg17
(lp200
sg24
g63
sg26
(lp201
g57
ag57
ag57
asbasbas.