(dp0
S'b'
p1
(lp2
(iTFClasses
TF
p3
(dp4
S'SingleBinFunc'
p5
(iTFClasses
function
p6
(dp7
S'DG_rel_weight'
p8
F0.7
sS'par_values'
p9
(lp10
F3955.1319393545664
aF33.333582358656464
aF6.263237398968502
aF32.587793594080814
aF10.278207052915045
asS'DG_mean'
p11
(lp12
S'[1]'
p13
aS'[3]'
p14
asS'par_errors'
p15
(lp16
F21.689714835141416
aF0.10514722642895791
aF0.10799002198608187
aF0.5411818616070683
aF0.31441112430924445
asS'par_limits'
p17
(lp18
(I1
F0.0
F2000.0
tp19
a(I2
F0.0
F2000.0
tp20
a(I3
F0.0
F2000.0
tp21
a(I4
F0.0
F2000.0
tp22
asS'Is_DG'
p23
I01
sS'str'
p24
S'[0]*(0.7*exp(-0.5*((x-([1]))/([2]))**2)+(1-0.7)*exp(-0.5*((x-([3]))/([2]+[4]))**2))'
p25
sS'par_initials'
p26
(lp27
S'0'
p28
aS'1.1*mean'
p29
aS'1.0*rms'
p30
aS'0.7*mean'
p31
aS'0.5*rms'
p32
asS'fitrange'
p33
(F30.1
F500.0
tp34
sS'DG_rms'
p35
(lp36
S'[2]'
p37
aS'[2]+[4]'
p38
asbsS'i_eta'
p39
I0
sS'particle'
p40
g1
sS'AcrossBinFuncs'
p41
(lp42
(iTFClasses
function
p43
(dp44
g15
(lp45
sg9
(lp46
sg17
(lp47
sg24
S'1'
p48
sg26
(lp49
sba(iTFClasses
function
p50
(dp51
g15
(lp52
F0.030739394515408792
aF0.0002479040472100413
asg9
(lp53
F1.7271466375953428
aF0.9425621804129153
asg17
(lp54
sg24
S'[0]+[1]*x'
p55
sg26
(lp56
S'0'
p57
ag48
asba(iTFClasses
function
p58
(dp59
g15
(lp60
F0.4366343755026241
aF0.07442760872076688
aF0.0037893729039775274
asg9
(lp61
F6.551284988458513
aF0.6580456629432501
aF0.04369202583009167
asg17
(lp62
sg24
S'sqrt([0]*[0] + x*[1]*[1] + x*x*[2]*[2])'
p63
sg26
(lp64
g57
ag57
ag57
asba(iTFClasses
function
p65
(dp66
g15
(lp67
F0.060170158381569014
aF0.00046166318467610266
asg9
(lp68
F6.957777509146078
aF0.8448300287262072
asg17
(lp69
sg24
g55
sg26
(lp70
g57
ag48
asba(iTFClasses
function
p71
(dp72
g15
(lp73
F0.06607501955189568
aF0.03377777262710158
aF0.0002192161583717787
asg9
(lp74
F5.153791452391174
aF1.4330226666405957e-06
aF0.11126436111401074
asg17
(lp75
sg24
g63
sg26
(lp76
g57
ag57
ag57
asbasba(iTFClasses
TF
p77
(dp78
g5
(iTFClasses
function
p79
(dp80
g8
F0.7
sg9
(lp81
F2273.5763137495646
aF32.23896386255953
aF5.614672926889552
aF30.5079577195283
aF10.53497513125523
asg11
(lp82
g13
ag14
asg15
(lp83
F18.39702267064764
aF0.1616926105592036
aF0.17261080294433961
aF1.0697800313176913
aF0.5471371377278045
asg17
(lp84
g19
ag20
ag21
ag22
asg23
I01
sg24
g25
sg26
(lp85
g28
ag29
ag30
ag31
ag32
asg33
g34
sg35
(lp86
g37
ag38
asbsg39
I1
sg40
g1
sg41
(lp87
(iTFClasses
function
p88
(dp89
g15
(lp90
sg9
(lp91
sg17
(lp92
sg24
g48
sg26
(lp93
sba(iTFClasses
function
p94
(dp95
g15
(lp96
F0.0484011689593527
aF0.00038742965753268667
asg9
(lp97
F-0.5467789149684333
aF0.8934615451942951
asg17
(lp98
sg24
g55
sg26
(lp99
g57
ag48
asba(iTFClasses
function
p100
(dp101
g15
(lp102
F0.15806476252048676
aF0.026557535728016397
aF0.0015571324445192653
asg9
(lp103
F6.798108216742685
aF0.7105592743910685
aF0.04829040741544219
asg17
(lp104
sg24
g63
sg26
(lp105
g57
ag57
ag57
asba(iTFClasses
function
p106
(dp107
g15
(lp108
F0.06756889715617437
aF0.0005296070859295327
asg9
(lp109
F4.968441974196857
aF0.7989411797627246
asg17
(lp110
sg24
g55
sg26
(lp111
g57
ag48
asba(iTFClasses
function
p112
(dp113
g15
(lp114
F0.14381032670399546
aF0.06243078286512014
aF0.0003245816388651079
asg9
(lp115
F-3.3991182972778806
aF2.639387087752843e-13
aF0.10508456714769127
asg17
(lp116
sg24
g63
sg26
(lp117
g57
ag57
ag57
asbasbasS'l'
p118
(lp119
(iTFClasses
TF
p120
(dp121
g5
(iTFClasses
function
p122
(dp123
g8
F0.7
sg9
(lp124
F9003.82857488967
aF33.65230643098438
aF6.369795090579
aF34.173439157101136
aF8.768221488591577
asg11
(lp125
g13
ag14
asg15
(lp126
F33.0993385941089
aF0.06652497503484156
aF0.07538392662714832
aF0.5034539067982919
aF0.270186390361693
asg17
(lp127
g19
ag20
ag21
ag22
asg23
I01
sg24
g25
sg26
(lp128
g28
ag29
ag30
ag31
ag32
asg33
g34
sg35
(lp129
g37
ag38
asbsg39
I0
sg40
g118
sg41
(lp130
(iTFClasses
function
p131
(dp132
g15
(lp133
sg9
(lp134
sg17
(lp135
sg24
g48
sg26
(lp136
sba(iTFClasses
function
p137
(dp138
g15
(lp139
F0.0216397841603761
aF0.0002077740201663682
asg9
(lp140
F2.7362681172342107
aF0.9553547887598556
asg17
(lp141
sg24
g55
sg26
(lp142
g57
ag48
asba(iTFClasses
function
p143
(dp144
g15
(lp145
F0.07121127971735071
aF0.008952956390008954
aF0.0010867213519926099
asg9
(lp146
F5.065344514823374
aF0.8250902439840169
aF0.030537780744158957
asg17
(lp147
sg24
g63
sg26
(lp148
g57
ag57
ag57
asba(iTFClasses
function
p149
(dp150
g15
(lp151
F0.04118820282761421
aF0.00037735773220363804
asg9
(lp152
F8.380845639140846
aF0.8676310101408048
asg17
(lp153
sg24
g55
sg26
(lp154
g57
ag48
asba(iTFClasses
function
p155
(dp156
g15
(lp157
F0.17227091517021717
aF0.026289524339381632
aF0.0011080181545150443
asg9
(lp158
F5.331822874593561
aF0.6678814578192712
aF0.06947389222686388
asg17
(lp159
sg24
g63
sg26
(lp160
g57
ag57
ag57
asbasba(iTFClasses
TF
p161
(dp162
g5
(iTFClasses
function
p163
(dp164
g8
F0.7
sg9
(lp165
F5505.566429519231
aF32.539931025094226
aF6.286376369675106
aF30.66038061200793
aF9.314755095685134
asg11
(lp166
g13
ag14
asg15
(lp167
F26.186848091859765
aF0.10220516494552356
aF0.11680234349792373
aF0.870446126546577
aF0.41718097493581574
asg17
(lp168
g19
ag20
ag21
ag22
asg23
I01
sg24
g25
sg26
(lp169
g28
ag29
ag30
ag31
ag32
asg33
g34
sg35
(lp170
g37
ag38
asbsg39
I1
sg40
g118
sg41
(lp171
(iTFClasses
function
p172
(dp173
g15
(lp174
sg9
(lp175
sg17
(lp176
sg24
g48
sg26
(lp177
sba(iTFClasses
function
p178
(dp179
g15
(lp180
F0.03332340481045427
aF0.0003112187314109714
asg9
(lp181
F1.2754030876900035
aF0.9112721172544024
asg17
(lp182
sg24
g55
sg26
(lp183
g57
ag48
asba(iTFClasses
function
p184
(dp185
g15
(lp186
F0.11305913049675748
aF0.012197123399249488
aF0.002248657355707588
asg9
(lp187
F4.94460173020781
aF0.9382043952410354
aF0.022896007663300747
asg17
(lp188
sg24
g63
sg26
(lp189
g57
ag57
ag57
asba(iTFClasses
function
p190
(dp191
g15
(lp192
F0.05740098284097767
aF0.0005289884458615195
asg9
(lp193
F7.37382156422532
aF0.8167801371301724
asg17
(lp194
sg24
g55
sg26
(lp195
g57
ag48
asba(iTFClasses
function
p196
(dp197
g15
(lp198
F0.2643162288696596
aF0.07383695566182863
aF0.0014561138805973776
asg9
(lp199
F5.438976677196977
aF0.3642544648099701
aF0.08008154312518333
asg17
(lp200
sg24
g63
sg26
(lp201
g57
ag57
ag57
asbasbas.