(dp0
S'b'
p1
(lp2
(iTFClasses
TF
p3
(dp4
S'SingleBinFunc'
p5
(iTFClasses
function
p6
(dp7
S'DG_rel_weight'
p8
F0.7
sS'par_values'
p9
(lp10
F855.3195736574776
aF32.99256538898121
aF6.537160846881274
aF30.618767861072204
aF12.300408616643388
asS'DG_mean'
p11
(lp12
S'[1]'
p13
aS'[3]'
p14
asS'par_errors'
p15
(lp16
F10.186196107749193
aF0.25773030265030883
aF0.2819194480746523
aF2.253823641309328
aF1.253419322627014
asS'par_limits'
p17
(lp18
(I1
F0.0
F2000.0
tp19
a(I2
F0.0
F2000.0
tp20
a(I3
F0.0
F2000.0
tp21
a(I4
F0.0
F2000.0
tp22
asS'Is_DG'
p23
I01
sS'str'
p24
S'[0]*(0.7*exp(-0.5*((x-([1]))/([2]))**2)+(1-0.7)*exp(-0.5*((x-([3]))/([2]+[4]))**2))'
p25
sS'par_initials'
p26
(lp27
S'0'
p28
aS'1.1*mean'
p29
aS'1.0*rms'
p30
aS'0.7*mean'
p31
aS'0.5*rms'
p32
asS'fitrange'
p33
(F30.1
F500.0
tp34
sS'DG_rms'
p35
(lp36
S'[2]'
p37
aS'[2]+[4]'
p38
asbsS'i_eta'
p39
I0
sS'particle'
p40
g1
sS'AcrossBinFuncs'
p41
(lp42
(iTFClasses
function
p43
(dp44
g15
(lp45
sg9
(lp46
sg17
(lp47
sg24
S'1'
p48
sg26
(lp49
sba(iTFClasses
function
p50
(dp51
g15
(lp52
F0.06621344452478213
aF0.0005355817504725698
asg9
(lp53
F0.33677180651556327
aF0.9300235081549281
asg17
(lp54
sg24
S'[0]+[1]*x'
p55
sg26
(lp56
S'0'
p57
ag48
asba(iTFClasses
function
p58
(dp59
g15
(lp60
F0.359817375958837
aF0.02396588615604282
aF0.007433246652713494
asg9
(lp61
F3.8796047476750735
aF1.049456053202653
aF0.013256643075426195
asg17
(lp62
sg24
S'sqrt([0]*[0] + x*[1]*[1] + x*x*[2]*[2])'
p63
sg26
(lp64
g57
ag57
ag57
asba(iTFClasses
function
p65
(dp66
g15
(lp67
F0.09500454964974973
aF0.0007912575450489664
asg9
(lp68
F8.1858105737833
aF0.7957752157604533
asg17
(lp69
sg24
g55
sg26
(lp70
g57
ag48
asba(iTFClasses
function
p71
(dp72
g15
(lp73
F0.13293646265393003
aF0.07958416322946749
aF0.0005066356830173821
asg9
(lp74
F6.3622021164863085
aF1.318684775841736e-07
aF0.11343430192380441
asg17
(lp75
sg24
g63
sg26
(lp76
g57
ag57
ag57
asbasba(iTFClasses
TF
p77
(dp78
g5
(iTFClasses
function
p79
(dp80
g8
F0.7
sg9
(lp81
F467.65301065064597
aF32.543648219136024
aF5.318265896698371
aF31.796765706885722
aF11.087726413138487
asg11
(lp82
g13
ag14
asg15
(lp83
F8.276842056691802
aF0.30597726573977724
aF0.3274910024792521
aF1.851834118081209
aF1.0333223913721596
asg17
(lp84
g19
ag20
ag21
ag22
asg23
I01
sg24
g25
sg26
(lp85
g28
ag29
ag30
ag31
ag32
asg33
g34
sg35
(lp86
g37
ag38
asbsg39
I1
sg40
g1
sg41
(lp87
(iTFClasses
function
p88
(dp89
g15
(lp90
sg9
(lp91
sg17
(lp92
sg24
g48
sg26
(lp93
sba(iTFClasses
function
p94
(dp95
g15
(lp96
F0.10994920468608851
aF0.0009005828255352042
asg9
(lp97
F-1.4349509768852178
aF0.8780245464680455
asg17
(lp98
sg24
g55
sg26
(lp99
g57
ag48
asba(iTFClasses
function
p100
(dp101
g15
(lp102
F0.7818899795535339
aF0.040588103904379697
aF0.00442435148948364
asg9
(lp103
F3.089645598533636
aF1.0944941606516974
aF0.04042948165892678
asg17
(lp104
sg24
g63
sg26
(lp105
g57
ag57
ag57
asba(iTFClasses
function
p106
(dp107
g15
(lp108
F0.2244330723580262
aF0.0017359428806090597
asg9
(lp109
F7.150465054421263
aF0.7479481514993432
asg17
(lp110
sg24
g55
sg26
(lp111
g57
ag48
asba(iTFClasses
function
p112
(dp113
g15
(lp114
F0.23692682891087558
aF0.13504963348019683
aF0.0008559636153419345
asg9
(lp115
F-5.554564761333527
aF3.1965641002141103e-06
aF0.10271735936041822
asg17
(lp116
sg24
g63
sg26
(lp117
g57
ag57
ag57
asbasbasS'l'
p118
(lp119
(iTFClasses
TF
p120
(dp121
g5
(iTFClasses
function
p122
(dp123
g8
F0.7
sg9
(lp124
F854.908446840571
aF33.78753224889297
aF6.319785029718972
aF33.29830591878391
aF10.711769164855278
asg11
(lp125
g13
ag14
asg15
(lp126
F9.595250758832982
aF0.20628621345886344
aF0.2335212836611089
aF1.7954589852152694
aF1.0443381924348243
asg17
(lp127
g19
ag20
ag21
ag22
asg23
I01
sg24
g25
sg26
(lp128
g28
ag29
ag30
ag31
ag32
asg33
g34
sg35
(lp129
g37
ag38
asbsg39
I0
sg40
g118
sg41
(lp130
(iTFClasses
function
p131
(dp132
g15
(lp133
sg9
(lp134
sg17
(lp135
sg24
g48
sg26
(lp136
sba(iTFClasses
function
p137
(dp138
g15
(lp139
F0.06287431591502547
aF0.0006325562219666368
asg9
(lp140
F2.086145172215498
aF0.9513266296191739
asg17
(lp141
sg24
g55
sg26
(lp142
g57
ag48
asba(iTFClasses
function
p143
(dp144
g15
(lp145
F0.2856248209197334
aF0.024993864364729765
aF0.004361442181766849
asg9
(lp146
F4.0813143133904
aF0.9330593659491746
aF0.022937022173389974
asg17
(lp147
sg24
g63
sg26
(lp148
g57
ag57
ag57
asba(iTFClasses
function
p149
(dp150
g15
(lp151
F0.09152080391753452
aF0.0008113531879456523
asg9
(lp152
F9.322451536529181
aF0.8591670769618596
asg17
(lp153
sg24
g55
sg26
(lp154
g57
ag48
asba(iTFClasses
function
p155
(dp156
g15
(lp157
F0.17918186867564792
aF0.02363473257503117
aF0.0011193158255203665
asg9
(lp158
F6.06293688359517
aF0.6228728634970303
aF0.07507255815398496
asg17
(lp159
sg24
g63
sg26
(lp160
g57
ag57
ag57
asbasba(iTFClasses
TF
p161
(dp162
g5
(iTFClasses
function
p163
(dp164
g8
F0.7
sg9
(lp165
F508.7761642930412
aF32.29734055789846
aF5.7293600043198945
aF33.8085159551863
aF9.001442959213456
asg11
(lp166
g13
ag14
asg15
(lp167
F8.735480721714488
aF0.3371995617317278
aF0.36525702662726367
aF1.6593580867536026
aF0.8791629929428835
asg17
(lp168
g19
ag20
ag21
ag22
asg23
I01
sg24
g25
sg26
(lp169
g28
ag29
ag30
ag31
ag32
asg33
g34
sg35
(lp170
g37
ag38
asbsg39
I1
sg40
g118
sg41
(lp171
(iTFClasses
function
p172
(dp173
g15
(lp174
sg9
(lp175
sg17
(lp176
sg24
g48
sg26
(lp177
sba(iTFClasses
function
p178
(dp179
g15
(lp180
F0.10581312784279859
aF0.0009772233267903165
asg9
(lp181
F0.7897550307230726
aF0.9068128465189826
asg17
(lp182
sg24
g55
sg26
(lp183
g57
ag48
asba(iTFClasses
function
p184
(dp185
g15
(lp186
F0.45680356620535645
aF0.03728718933456473
aF0.006337909492204055
asg9
(lp187
F4.094762101395243
aF1.0002979591081453
aF0.025648175065984536
asg17
(lp188
sg24
g63
sg26
(lp189
g57
ag57
ag57
asba(iTFClasses
function
p190
(dp191
g15
(lp192
F0.20934181200919547
aF0.0018165357210244474
asg9
(lp193
F8.692118469331945
aF0.8019108474132587
asg17
(lp194
sg24
g55
sg26
(lp195
g57
ag48
asba(iTFClasses
function
p196
(dp197
g15
(lp198
F0.1610658084773494
aF0.2511151481081737
aF0.0010255964313300864
asg9
(lp199
F6.70217917266639
aF8.820777865470385e-07
aF0.08427692627513729
asg17
(lp200
sg24
g63
sg26
(lp201
g57
ag57
ag57
asbasbas.