(dp0
S'b'
p1
(lp2
(iTFClasses
TF
p3
(dp4
S'SingleBinFunc'
p5
(iTFClasses
function
p6
(dp7
S'DG_rel_weight'
p8
F0.7
sS'par_values'
p9
(lp10
F3286.4069291405517
aF29.258066325473784
aF5.206241889379015
aF1862.175340419734
aF1900.9459725837426
asS'DG_mean'
p11
(lp12
S'[1]'
p13
aS'[3]'
p14
asS'par_errors'
p15
(lp16
F347.50043226430915
aF0.6751754537133721
aF0.7501397763887696
aF1909.6898926057181
aF1818.4679101747138
asS'par_limits'
p17
(lp18
(I1
F0.0
F2000.0
tp19
a(I2
F0.0
F2000.0
tp20
a(I3
F0.0
F2000.0
tp21
a(I4
F0.0
F2000.0
tp22
asS'Is_DG'
p23
I01
sS'str'
p24
S'[0]*(0.7*exp(-0.5*((x-([1]))/([2]))**2)+(1-0.7)*exp(-0.5*((x-([3]))/([2]+[4]))**2))'
p25
sS'par_initials'
p26
(lp27
S'0'
p28
aS'1.1*mean'
p29
aS'1.0*rms'
p30
aS'0.7*mean'
p31
aS'0.5*rms'
p32
asS'fitrange'
p33
(F30.1
F500.0
tp34
sS'DG_rms'
p35
(lp36
S'[2]'
p37
aS'[2]+[4]'
p38
asbsS'i_eta'
p39
I0
sS'particle'
p40
g1
sS'AcrossBinFuncs'
p41
(lp42
(iTFClasses
function
p43
(dp44
g15
(lp45
sg9
(lp46
sg17
(lp47
sg24
S'1'
p48
sg26
(lp49
sba(iTFClasses
function
p50
(dp51
g15
(lp52
F0.05913489837612919
aF0.0005951337307179529
asg9
(lp53
F-5.046980079678984
aF1.0010171765408336
asg17
(lp54
sg24
S'[0]+[1]*x'
p55
sg26
(lp56
S'0'
p57
ag48
asba(iTFClasses
function
p58
(dp59
g15
(lp60
F0.3628257646656392
aF0.005716422740053787
aF0.0017547454608471322
asg9
(lp61
F2.237156141102891e-06
aF1.1757823354268575
aF0.03328993135010538
asg17
(lp62
sg24
S'sqrt([0]*[0] + x*[1]*[1] + x*x*[2]*[2])'
p63
sg26
(lp64
g57
ag57
ag57
asba(iTFClasses
function
p65
(dp66
g15
(lp67
F0.08000613455476738
aF0.0006992122935911748
asg9
(lp68
F-8.842727956600601
aF0.9548780249583905
asg17
(lp69
sg24
g55
sg26
(lp70
g57
ag48
asba(iTFClasses
function
p71
(dp72
g15
(lp73
F0.6564545834019958
aF0.06681685599426333
aF0.0005735274176301745
asg9
(lp74
F1.4706378118617858
aF1.6317573660900598e-06
aF0.14947797400296503
asg17
(lp75
sg24
g63
sg26
(lp76
g57
ag57
ag57
asbasba(iTFClasses
TF
p77
(dp78
g5
(iTFClasses
function
p79
(dp80
g8
F0.7
sg9
(lp81
F1986.3936540869972
aF32.02307034174046
aF5.6848130150872755
aF23.610514350905664
aF2.204073590306166e-07
asg11
(lp82
g13
ag14
asg15
(lp83
F793.5431665963611
aF1.716856936209652
aF0.4476691773190322
aF12.80142097150244
aF14.833981165937038
asg17
(lp84
g19
ag20
ag21
ag22
asg23
I01
sg24
g25
sg26
(lp85
g28
ag29
ag30
ag31
ag32
asg33
g34
sg35
(lp86
g37
ag38
asbsg39
I1
sg40
g1
sg41
(lp87
(iTFClasses
function
p88
(dp89
g15
(lp90
sg9
(lp91
sg17
(lp92
sg24
g48
sg26
(lp93
sba(iTFClasses
function
p94
(dp95
g15
(lp96
F0.09403934283077764
aF0.0009694273019028731
asg9
(lp97
F-3.6518940493039977
aF0.9705964543082781
asg17
(lp98
sg24
g55
sg26
(lp99
g57
ag48
asba(iTFClasses
function
p100
(dp101
g15
(lp102
F0.5758265182221538
aF0.00974789023788941
aF0.001915852225595522
asg9
(lp103
F2.033095278843777e-05
aF1.2769388766405239
aF0.0598424234363579
asg17
(lp104
sg24
g63
sg26
(lp105
g57
ag57
ag57
asba(iTFClasses
function
p106
(dp107
g15
(lp108
F0.22092443640744347
aF0.0019829261004930764
asg9
(lp109
F-6.597855268030036
aF0.928152982304777
asg17
(lp110
sg24
g55
sg26
(lp111
g57
ag48
asba(iTFClasses
function
p112
(dp113
g15
(lp114
F0.8204623457939786
aF0.10145977609394258
aF0.0009607152911897185
asg9
(lp115
F1.764751398698583
aF4.434121275823388e-08
aF0.13538844270579822
asg17
(lp116
sg24
g63
sg26
(lp117
g57
ag57
ag57
asbasbasS'l'
p118
(lp119
(iTFClasses
TF
p120
(dp121
g5
(iTFClasses
function
p122
(dp123
g8
F0.7
sg9
(lp124
F2037.6164679774174
aF31.923784792795008
aF5.179337088213276
aF14.431292751940772
aF17.629435478432764
asg11
(lp125
g13
ag14
asg15
(lp126
F482.70943406312387
aF0.35800651074230316
aF0.5817775129712266
aF59.2343168458791
aF38.1604047252263
asg17
(lp127
g19
ag20
ag21
ag22
asg23
I01
sg24
g25
sg26
(lp128
g28
ag29
ag30
ag31
ag32
asg33
g34
sg35
(lp129
g37
ag38
asbsg39
I0
sg40
g118
sg41
(lp130
(iTFClasses
function
p131
(dp132
g15
(lp133
sg9
(lp134
sg17
(lp135
sg24
g48
sg26
(lp136
sba(iTFClasses
function
p137
(dp138
g15
(lp139
F0.063429506713442
aF0.0007637869998927892
asg9
(lp140
F-1.3063660396662677
aF1.0298512213857622
asg17
(lp141
sg24
g55
sg26
(lp142
g57
ag48
asba(iTFClasses
function
p143
(dp144
g15
(lp145
F2.161437245155325
aF0.03180399198460145
aF0.003057586250779222
asg9
(lp146
F0.545149053151746
aF0.9013570966974294
aF0.049320584158847366
asg17
(lp147
sg24
g63
sg26
(lp148
g57
ag57
ag57
asba(iTFClasses
function
p149
(dp150
g15
(lp151
F0.14684498127493553
aF0.0015597177510333193
asg9
(lp152
F-5.699921032610498
aF1.0412672508896006
asg17
(lp153
sg24
g55
sg26
(lp154
g57
ag48
asba(iTFClasses
function
p155
(dp156
g15
(lp157
F2.668000742929883
aF0.07415992499115165
aF0.004885376819162928
asg9
(lp158
F-1.3614672121213538
aF1.049372672813915
aF0.07872866651337865
asg17
(lp159
sg24
g63
sg26
(lp160
g57
ag57
ag57
asbasba(iTFClasses
TF
p161
(dp162
g5
(iTFClasses
function
p163
(dp164
g8
F0.7
sg9
(lp165
F1433.706832319596
aF31.7563487563286
aF5.61295891108704
aF38.64165344489445
aF2.541381183429059
asg11
(lp166
g13
ag14
asg15
(lp167
F166.8117706794654
aF0.5267689314689115
aF0.5750300108543493
aF2.31811429944484
aF2.3873412611946088
asg17
(lp168
g19
ag20
ag21
ag22
asg23
I01
sg24
g25
sg26
(lp169
g28
ag29
ag30
ag31
ag32
asg33
g34
sg35
(lp170
g37
ag38
asbsg39
I1
sg40
g118
sg41
(lp171
(iTFClasses
function
p172
(dp173
g15
(lp174
sg9
(lp175
sg17
(lp176
sg24
g48
sg26
(lp177
sba(iTFClasses
function
p178
(dp179
g15
(lp180
F0.10526466182897508
aF0.001220134916567122
asg9
(lp181
F-0.4057554866655383
aF1.0233931583480342
asg17
(lp182
sg24
g55
sg26
(lp183
g57
ag48
asba(iTFClasses
function
p184
(dp185
g15
(lp186
F0.5736724160882173
aF0.049323694830965305
aF0.004310637388539976
asg9
(lp187
F3.6970025337200685
aF1.002518566604064
aF0.0593661664830704
asg17
(lp188
sg24
g63
sg26
(lp189
g57
ag57
ag57
asba(iTFClasses
function
p190
(dp191
g15
(lp192
F0.23165958739783282
aF0.0024005964288109577
asg9
(lp193
F-4.259806036297077
aF1.0172077716344594
asg17
(lp194
sg24
g55
sg26
(lp195
g57
ag48
asba(iTFClasses
function
p196
(dp197
g15
(lp198
F0.22343310213417525
aF0.39097359081212685
aF0.0013162086022597394
asg9
(lp199
F5.9217256608127276
aF-4.215312667639168e-06
aF0.11528271149822879
asg17
(lp200
sg24
g63
sg26
(lp201
g57
ag57
ag57
asbasbas.