(dp0
S'b'
p1
(lp2
(iTFClasses
TF
p3
(dp4
S'SingleBinFunc'
p5
(iTFClasses
function
p6
(dp7
S'DG_rel_weight'
p8
F0.7
sS'par_values'
p9
(lp10
F3074.7369357215125
aF31.886619037738928
aF4.555891433143389
aF24.905688471995813
aF10.652824710169595
asS'DG_mean'
p11
(lp12
S'[1]'
p13
aS'[3]'
p14
asS'par_errors'
p15
(lp16
F30.028383480230907
aF0.11944043733269538
aF0.12643107231530282
aF1.1465260227414014
aF0.5128916640874666
asS'par_limits'
p17
(lp18
(I1
F0.0
F2000.0
tp19
a(I2
F0.0
F2000.0
tp20
a(I3
F0.0
F2000.0
tp21
a(I4
F0.0
F2000.0
tp22
asS'Is_DG'
p23
I01
sS'str'
p24
S'[0]*(0.7*exp(-0.5*((x-([1]))/([2]))**2)+(1-0.7)*exp(-0.5*((x-([3]))/([2]+[4]))**2))'
p25
sS'par_initials'
p26
(lp27
S'0'
p28
aS'1.1*mean'
p29
aS'1.0*rms'
p30
aS'0.7*mean'
p31
aS'0.5*rms'
p32
asS'fitrange'
p33
(F30.1
F500.0
tp34
sS'DG_rms'
p35
(lp36
S'[2]'
p37
aS'[2]+[4]'
p38
asbsS'i_eta'
p39
I0
sS'particle'
p40
g1
sS'AcrossBinFuncs'
p41
(lp42
(iTFClasses
function
p43
(dp44
g15
(lp45
sg9
(lp46
sg17
(lp47
sg24
S'1'
p48
sg26
(lp49
sba(iTFClasses
function
p50
(dp51
g15
(lp52
F0.04881812699354058
aF0.00048671104000276046
asg9
(lp53
F-5.233008073256226
aF1.0053576206716548
asg17
(lp54
sg24
S'[0]+[1]*x'
p55
sg26
(lp56
S'0'
p57
ag48
asba(iTFClasses
function
p58
(dp59
g15
(lp60
F0.22268340112175766
aF0.004622065430475882
aF0.0010103142777112023
asg9
(lp61
F-1.9082248398743507e-05
aF1.1689162098413786
aF0.04776649415003731
asg17
(lp62
sg24
S'sqrt([0]*[0] + x*[1]*[1] + x*x*[2]*[2])'
p63
sg26
(lp64
g57
ag57
ag57
asba(iTFClasses
function
p65
(dp66
g15
(lp67
F0.11543763875539387
aF0.0010049296596941618
asg9
(lp68
F-10.577264417557126
aF0.9712962609477244
asg17
(lp69
sg24
g55
sg26
(lp70
g57
ag48
asba(iTFClasses
function
p71
(dp72
g15
(lp73
F0.17798957556478462
aF0.04807666973533938
aF0.0004734048563629624
asg9
(lp74
F3.9635893268801365
aF9.179289724964285e-08
aF0.13288398675230823
asg17
(lp75
sg24
g63
sg26
(lp76
g57
ag57
ag57
asbasba(iTFClasses
TF
p77
(dp78
g5
(iTFClasses
function
p79
(dp80
g8
F0.7
sg9
(lp81
F2598.7996616715504
aF32.049803768233964
aF4.865523046677089
aF28.862060451517955
aF8.216206756554211
asg11
(lp82
g13
ag14
asg15
(lp83
F21.917417261960406
aF0.1301791478211527
aF0.156195263434189
aF1.1128629498764475
aF0.47762972532483516
asg17
(lp84
g19
ag20
ag21
ag22
asg23
I01
sg24
g25
sg26
(lp85
g28
ag29
ag30
ag31
ag32
asg33
g34
sg35
(lp86
g37
ag38
asbsg39
I1
sg40
g1
sg41
(lp87
(iTFClasses
function
p88
(dp89
g15
(lp90
sg9
(lp91
sg17
(lp92
sg24
g48
sg26
(lp93
sba(iTFClasses
function
p94
(dp95
g15
(lp96
F0.04724470724824845
aF0.0005264426116909514
asg9
(lp97
F-5.085691000383911
aF0.9959203229497658
asg17
(lp98
sg24
g55
sg26
(lp99
g57
ag48
asba(iTFClasses
function
p100
(dp101
g15
(lp102
F0.2723149335518959
aF0.006457725322619192
aF0.001481358395635072
asg9
(lp103
F-1.932734318395206e-06
aF1.2672752652945432
aF0.05209806067787081
asg17
(lp104
sg24
g63
sg26
(lp105
g57
ag57
ag57
asba(iTFClasses
function
p106
(dp107
g15
(lp108
F0.1293250793025371
aF0.0010553413847334966
asg9
(lp109
F-9.93305853383044
aF0.9499019745218162
asg17
(lp110
sg24
g55
sg26
(lp111
g57
ag48
asba(iTFClasses
function
p112
(dp113
g15
(lp114
F0.4619462700739357
aF0.08242710270608204
aF0.0006846513594424225
asg9
(lp115
F2.0360242093708405
aF-1.4489057223546355e-07
aF0.1291288509309933
asg17
(lp116
sg24
g63
sg26
(lp117
g57
ag57
ag57
asbasbasS'l'
p118
(lp119
(iTFClasses
TF
p120
(dp121
g5
(iTFClasses
function
p122
(dp123
g8
F0.7
sg9
(lp124
F3609.161247843944
aF30.576405193836752
aF6.132531317791123
aF19.587131574181793
aF11.717181220212701
asg11
(lp125
g13
ag14
asg15
(lp126
F74.3443241873215
aF0.25563789703258877
aF0.19937046512435996
aF2.205635220163371
aF0.8620079740976889
asg17
(lp127
g19
ag20
ag21
ag22
asg23
I01
sg24
g25
sg26
(lp128
g28
ag29
ag30
ag31
ag32
asg33
g34
sg35
(lp129
g37
ag38
asbsg39
I0
sg40
g118
sg41
(lp130
(iTFClasses
function
p131
(dp132
g15
(lp133
sg9
(lp134
sg17
(lp135
sg24
g48
sg26
(lp136
sba(iTFClasses
function
p137
(dp138
g15
(lp139
F0.04939593762421179
aF0.0005778639965454812
asg9
(lp140
F-2.362820956475525
aF1.0300477267878503
asg17
(lp141
sg24
g55
sg26
(lp142
g57
ag48
asba(iTFClasses
function
p143
(dp144
g15
(lp145
F0.45145360719740274
aF0.004997799544118504
aF0.0009643472372476576
asg9
(lp146
F-1.3505292207850758e-05
aF1.0102358859405387
aF0.05341958449934543
asg17
(lp147
sg24
g63
sg26
(lp148
g57
ag57
ag57
asba(iTFClasses
function
p149
(dp150
g15
(lp151
F0.11490150908357802
aF0.0011549372588296814
asg9
(lp152
F-8.02097345044926
aF1.0530640242525715
asg17
(lp153
sg24
g55
sg26
(lp154
g57
ag48
asba(iTFClasses
function
p155
(dp156
g15
(lp157
F0.43197339566827686
aF0.08743349145964298
aF0.003109683288504331
asg9
(lp158
F6.4689647923680615
aF0.6503719769508165
aF0.085064759184354
asg17
(lp159
sg24
g63
sg26
(lp160
g57
ag57
ag57
asbasba(iTFClasses
TF
p161
(dp162
g5
(iTFClasses
function
p163
(dp164
g8
F0.7
sg9
(lp165
F2528.9915594476106
aF31.604903114928916
aF6.746024062694644
aF21.08307323087777
aF10.938640986105085
asg11
(lp166
g13
ag14
asg15
(lp167
F59.53117676770835
aF0.23423026351471243
aF0.2227057356519735
aF3.17649372454909
aF1.273206797089033
asg17
(lp168
g19
ag20
ag21
ag22
asg23
I01
sg24
g25
sg26
(lp169
g28
ag29
ag30
ag31
ag32
asg33
g34
sg35
(lp170
g37
ag38
asbsg39
I1
sg40
g118
sg41
(lp171
(iTFClasses
function
p172
(dp173
g15
(lp174
sg9
(lp175
sg17
(lp176
sg24
g48
sg26
(lp177
sba(iTFClasses
function
p178
(dp179
g15
(lp180
F0.08025540075065807
aF0.0009000811372569496
asg9
(lp181
F-2.1821463352099597
aF1.034658312674628
asg17
(lp182
sg24
g55
sg26
(lp183
g57
ag48
asba(iTFClasses
function
p184
(dp185
g15
(lp186
F0.4674470770938939
aF0.036928049806991665
aF0.003587123317768526
asg9
(lp187
F3.7187116808285015
aF1.055836497968303
aF0.054087231110014025
asg17
(lp188
sg24
g63
sg26
(lp189
g57
ag57
ag57
asba(iTFClasses
function
p190
(dp191
g15
(lp192
F0.13164166965044313
aF0.0013687246593450347
asg9
(lp193
F-7.640206491138281
aF1.0338566445740534
asg17
(lp194
sg24
g55
sg26
(lp195
g57
ag48
asba(iTFClasses
function
p196
(dp197
g15
(lp198
F0.7563309682462865
aF0.16545118939086134
aF0.00442171490542035
asg9
(lp199
F5.9546382986099715
aF0.5471809886973047
aF0.09515701698592878
asg17
(lp200
sg24
g63
sg26
(lp201
g57
ag57
ag57
asbasbas.