(dp0
S'b'
p1
(lp2
(iTFClasses
TF
p3
(dp4
S'SingleBinFunc'
p5
(iTFClasses
function
p6
(dp7
S'DG_rel_weight'
p8
F0.7
sS'par_values'
p9
(lp10
F3466.6237137242124
aF29.229396835566913
aF5.7135073073038
aF13.980488232130162
aF9.785191590221952
asS'DG_mean'
p11
(lp12
S'[1]'
p13
aS'[3]'
p14
asS'par_errors'
p15
(lp16
F184.54732940994748
aF0.37351688177755804
aF0.34765969631267435
aF4.211907197558263
aF3.1517273954307923
asS'par_limits'
p17
(lp18
(I1
F0.0
F2000.0
tp19
a(I2
F0.0
F2000.0
tp20
a(I3
F0.0
F2000.0
tp21
a(I4
F0.0
F2000.0
tp22
asS'Is_DG'
p23
I01
sS'str'
p24
S'[0]*(0.7*exp(-0.5*((x-([1]))/([2]))**2)+(1-0.7)*exp(-0.5*((x-([3]))/([2]+[4]))**2))'
p25
sS'par_initials'
p26
(lp27
S'0'
p28
aS'1.1*mean'
p29
aS'1.0*rms'
p30
aS'0.7*mean'
p31
aS'0.5*rms'
p32
asS'fitrange'
p33
(F30.1
F500.0
tp34
sS'DG_rms'
p35
(lp36
S'[2]'
p37
aS'[2]+[4]'
p38
asbsS'i_eta'
p39
I0
sS'particle'
p40
g1
sS'AcrossBinFuncs'
p41
(lp42
(iTFClasses
function
p43
(dp44
g15
(lp45
sg9
(lp46
sg17
(lp47
sg24
S'1'
p48
sg26
(lp49
sba(iTFClasses
function
p50
(dp51
g15
(lp52
F0.0545191658415414
aF0.0005522503858032269
asg9
(lp53
F-4.271168865894607
aF0.9982963501634771
asg17
(lp54
sg24
S'[0]+[1]*x'
p55
sg26
(lp56
S'0'
p57
ag48
asba(iTFClasses
function
p58
(dp59
g15
(lp60
F0.47802295486424984
aF0.005423149647376758
aF0.0013581480255131868
asg9
(lp61
F5.061946007308389e-07
aF1.0790432041806235
aF0.03744295256095412
asg17
(lp62
sg24
S'sqrt([0]*[0] + x*[1]*[1] + x*x*[2]*[2])'
p63
sg26
(lp64
g57
ag57
ag57
asba(iTFClasses
function
p65
(dp66
g15
(lp67
F0.12633837782522309
aF0.0011370029520276642
asg9
(lp68
F-8.622411840447853
aF0.9573520290252925
asg17
(lp69
sg24
g55
sg26
(lp70
g57
ag48
asba(iTFClasses
function
p71
(dp72
g15
(lp73
F0.21226871373284223
aF0.06807248032490322
aF0.0005391259078272104
asg9
(lp74
F4.1332916010461425
aF2.0739886252261907e-11
aF0.14674662862951685
asg17
(lp75
sg24
g63
sg26
(lp76
g57
ag57
ag57
asbasba(iTFClasses
TF
p77
(dp78
g5
(iTFClasses
function
p79
(dp80
g8
F0.7
sg9
(lp81
F1888.2088449387747
aF29.308620149667064
aF4.907680803897363
aF0.21298991538376555
aF38.292998555994885
asg11
(lp82
g13
ag14
asg15
(lp83
F461.91850739624095
aF1.2142562179877086
aF1.9993497166395646
aF1522.2542422304064
aF78.88573564381385
asg17
(lp84
g19
ag20
ag21
ag22
asg23
I01
sg24
g25
sg26
(lp85
g28
ag29
ag30
ag31
ag32
asg33
g34
sg35
(lp86
g37
ag38
asbsg39
I1
sg40
g1
sg41
(lp87
(iTFClasses
function
p88
(dp89
g15
(lp90
sg9
(lp91
sg17
(lp92
sg24
g48
sg26
(lp93
sba(iTFClasses
function
p94
(dp95
g15
(lp96
F0.08245330758463522
aF0.0008479817709857516
asg9
(lp97
F-4.615241803629952
aF0.9915026552442437
asg17
(lp98
sg24
g55
sg26
(lp99
g57
ag48
asba(iTFClasses
function
p100
(dp101
g15
(lp102
F0.7940353328577909
aF0.008170525978037985
aF0.0024900670285298897
asg9
(lp103
F-8.276109346020746e-07
aF1.2508222804385922
aF0.03675041684217389
asg17
(lp104
sg24
g63
sg26
(lp105
g57
ag57
ag57
asba(iTFClasses
function
p106
(dp107
g15
(lp108
F0.14808991859151888
aF0.0013771058767116883
asg9
(lp109
F-9.250613421176668
aF0.9505914297865965
asg17
(lp110
sg24
g55
sg26
(lp111
g57
ag48
asba(iTFClasses
function
p112
(dp113
g15
(lp114
F0.7000860350792812
aF0.06879460751256682
aF0.000513069832628188
asg9
(lp115
F2.1262159284182928e-10
aF1.2217822494546845e-11
aF0.14271163938288473
asg17
(lp116
sg24
g63
sg26
(lp117
g57
ag57
ag57
asbasbasS'l'
p118
(lp119
(iTFClasses
TF
p120
(dp121
g5
(iTFClasses
function
p122
(dp123
g8
F0.7
sg9
(lp124
F2253.453869335302
aF31.23786925793748
aF5.219764999843002
aF10.039030198349618
aF18.32669182861013
asg11
(lp125
g13
ag14
asg15
(lp126
F49.84502680235276
aF0.21508689018040528
aF0.19356987243829282
aF4.381813999515205
aF2.7497343624436352
asg17
(lp127
g19
ag20
ag21
ag22
asg23
I01
sg24
g25
sg26
(lp128
g28
ag29
ag30
ag31
ag32
asg33
g34
sg35
(lp129
g37
ag38
asbsg39
I0
sg40
g118
sg41
(lp130
(iTFClasses
function
p131
(dp132
g15
(lp133
sg9
(lp134
sg17
(lp135
sg24
g48
sg26
(lp136
sba(iTFClasses
function
p137
(dp138
g15
(lp139
F0.060961418953474844
aF0.0007329913336622528
asg9
(lp140
F-1.5596589538025774
aF1.026917354646419
asg17
(lp141
sg24
g55
sg26
(lp142
g57
ag48
asba(iTFClasses
function
p143
(dp144
g15
(lp145
F0.4425395433305433
aF0.031834400105402075
aF0.0024513399311128993
asg9
(lp146
F2.3338255282262677
aF0.7851448599723303
aF0.05406309050450795
asg17
(lp147
sg24
g63
sg26
(lp148
g57
ag57
ag57
asba(iTFClasses
function
p149
(dp150
g15
(lp151
F0.13650599237509758
aF0.0014231595661861136
asg9
(lp152
F-5.584978630719059
aF1.0397350262657177
asg17
(lp153
sg24
g55
sg26
(lp154
g57
ag48
asba(iTFClasses
function
p155
(dp156
g15
(lp157
F1.1690071420238368
aF0.07707293801153238
aF0.004788938511316
asg9
(lp158
F2.954071914489781
aF0.964811128047717
aF0.07656756854122226
asg17
(lp159
sg24
g63
sg26
(lp160
g57
ag57
ag57
asbasba(iTFClasses
TF
p161
(dp162
g5
(iTFClasses
function
p163
(dp164
g8
F0.7
sg9
(lp165
F1560.1177570684995
aF31.982567299104314
aF6.384869915398883
aF16.86780268336574
aF9.809993457782774
asg11
(lp166
g13
ag14
asg15
(lp167
F782.8927360994968
aF0.7966775213699684
aF0.9153597682274861
aF71.34257831876961
aF31.364271502741957
asg17
(lp168
g19
ag20
ag21
ag22
asg23
I01
sg24
g25
sg26
(lp169
g28
ag29
ag30
ag31
ag32
asg33
g34
sg35
(lp170
g37
ag38
asbsg39
I1
sg40
g118
sg41
(lp171
(iTFClasses
function
p172
(dp173
g15
(lp174
sg9
(lp175
sg17
(lp176
sg24
g48
sg26
(lp177
sba(iTFClasses
function
p178
(dp179
g15
(lp180
F0.09578488759731701
aF0.0011351847075700753
asg9
(lp181
F-1.8201754477723286
aF1.035526830152695
asg17
(lp182
sg24
g55
sg26
(lp183
g57
ag48
asba(iTFClasses
function
p184
(dp185
g15
(lp186
F0.8606134199107219
aF0.04816034235534205
aF0.006381869350377212
asg9
(lp187
F2.4570272931192494
aF1.0220499595380361
aF0.039972355135823694
asg17
(lp188
sg24
g63
sg26
(lp189
g57
ag57
ag57
asba(iTFClasses
function
p190
(dp191
g15
(lp192
F0.21130030994838947
aF0.002222896852536115
asg9
(lp193
F-5.737582770710015
aF1.029039912256216
asg17
(lp194
sg24
g55
sg26
(lp195
g57
ag48
asba(iTFClasses
function
p196
(dp197
g15
(lp198
F2.2673568886613147
aF0.026519425453292823
aF0.002645390399187578
asg9
(lp199
F7.131193157801682e-05
aF0.9162132736868592
aF0.08917910774689897
asg17
(lp200
sg24
g63
sg26
(lp201
g57
ag57
ag57
asbasbas.