(dp0
S'b'
p1
(lp2
(iTFClasses
TF
p3
(dp4
S'SingleBinFunc'
p5
(iTFClasses
function
p6
(dp7
S'DG_rel_weight'
p8
F0.7
sS'par_values'
p9
(lp10
F969.4954076297068
aF28.4370623543283
aF5.433104019164414
aF24.488398490053797
aF6.954192159585149
asS'DG_mean'
p11
(lp12
S'[1]'
p13
aS'[3]'
p14
asS'par_errors'
p15
(lp16
F102.05621475115424
aF1.0102344984008749
aF0.748654463761711
aF7.336831853585522
aF2.9402783489896334
asS'par_limits'
p17
(lp18
(I1
F0.0
F2000.0
tp19
a(I2
F0.0
F2000.0
tp20
a(I3
F0.0
F2000.0
tp21
a(I4
F0.0
F2000.0
tp22
asS'Is_DG'
p23
I01
sS'str'
p24
S'[0]*(0.7*exp(-0.5*((x-([1]))/([2]))**2)+(1-0.7)*exp(-0.5*((x-([3]))/([2]+[4]))**2))'
p25
sS'par_initials'
p26
(lp27
S'0'
p28
aS'1.1*mean'
p29
aS'1.0*rms'
p30
aS'0.7*mean'
p31
aS'0.5*rms'
p32
asS'fitrange'
p33
(F30.1
F500.0
tp34
sS'DG_rms'
p35
(lp36
S'[2]'
p37
aS'[2]+[4]'
p38
asbsS'i_eta'
p39
I0
sS'particle'
p40
g1
sS'AcrossBinFuncs'
p41
(lp42
(iTFClasses
function
p43
(dp44
g15
(lp45
sg9
(lp46
sg17
(lp47
sg24
S'1'
p48
sg26
(lp49
sba(iTFClasses
function
p50
(dp51
g15
(lp52
F0.0855670361986975
aF0.001000863729150497
asg9
(lp53
F-3.886930070287776
aF1.0068032544001475
asg17
(lp54
sg24
S'[0]+[1]*x'
p55
sg26
(lp56
S'0'
p57
ag48
asba(iTFClasses
function
p58
(dp59
g15
(lp60
F0.8098010386814801
aF0.009514405213910665
aF0.0015801170314029382
asg9
(lp61
F-1.1566148447170915e-05
aF0.942241271767703
aF0.061350837750585474
asg17
(lp62
sg24
S'sqrt([0]*[0] + x*[1]*[1] + x*x*[2]*[2])'
p63
sg26
(lp64
g57
ag57
ag57
asba(iTFClasses
function
p65
(dp66
g15
(lp67
F0.20602744134041817
aF0.0021260533996014476
asg9
(lp68
F-8.75058166640593
aF0.9656501522215825
asg17
(lp69
sg24
g55
sg26
(lp70
g57
ag48
asba(iTFClasses
function
p71
(dp72
g15
(lp73
F0.26233922538886667
aF0.06521102701309678
aF0.0009806697691816973
asg9
(lp74
F3.809204238740245
aF1.1325399529190822e-06
aF0.12345950208896793
asg17
(lp75
sg24
g63
sg26
(lp76
g57
ag57
ag57
asbasba(iTFClasses
TF
p77
(dp78
g5
(iTFClasses
function
p79
(dp80
g8
F0.7
sg9
(lp81
F778.7783171820095
aF29.248847492973297
aF6.380589657521307
aF17.58608807597495
aF9.613555197561796
asg11
(lp82
g13
ag14
asg15
(lp83
F311.65445133177167
aF1.2221254914247535
aF1.4815049546735293
aF48.23913237086508
aF20.910697857912776
asg17
(lp84
g19
ag20
ag21
ag22
asg23
I01
sg24
g25
sg26
(lp85
g28
ag29
ag30
ag31
ag32
asg33
g34
sg35
(lp86
g37
ag38
asbsg39
I1
sg40
g1
sg41
(lp87
(iTFClasses
function
p88
(dp89
g15
(lp90
sg9
(lp91
sg17
(lp92
sg24
g48
sg26
(lp93
sba(iTFClasses
function
p94
(dp95
g15
(lp96
F0.1354902291665481
aF0.001568964571927338
asg9
(lp97
F-3.957618084874264
aF0.9933224912168357
asg17
(lp98
sg24
g55
sg26
(lp99
g57
ag48
asba(iTFClasses
function
p100
(dp101
g15
(lp102
F1.4024510203168408
aF0.013119783647632388
aF0.0025643979816112527
asg9
(lp103
F-1.192435521859078e-08
aF1.1705142092913514
aF0.06584059794515272
asg17
(lp104
sg24
g63
sg26
(lp105
g57
ag57
ag57
asba(iTFClasses
function
p106
(dp107
g15
(lp108
F0.3413634830313232
aF0.0034222072593010954
asg9
(lp109
F-10.688518043529335
aF0.9568472227930905
asg17
(lp110
sg24
g55
sg26
(lp111
g57
ag48
asba(iTFClasses
function
p112
(dp113
g15
(lp114
F0.5770658563821746
aF0.11456886662981641
aF0.0016103444778369583
asg9
(lp115
F2.728639979324519
aF-5.3395928821332695e-06
aF0.11097317897418038
asg17
(lp116
sg24
g63
sg26
(lp117
g57
ag57
ag57
asbasbasS'l'
p118
(lp119
(iTFClasses
TF
p120
(dp121
g5
(iTFClasses
function
p122
(dp123
g8
F0.7
sg9
(lp124
F3620.457419341794
aF30.95160500607852
aF5.370900516241228
aF26.98257014168448
aF7.4090853858771455
asg11
(lp125
g13
ag14
asg15
(lp126
F65.43302635465004
aF0.18479272818799863
aF0.19878171146336943
aF2.387457536856429
aF1.0801895033967779
asg17
(lp127
g19
ag20
ag21
ag22
asg23
I01
sg24
g25
sg26
(lp128
g28
ag29
ag30
ag31
ag32
asg33
g34
sg35
(lp129
g37
ag38
asbsg39
I0
sg40
g118
sg41
(lp130
(iTFClasses
function
p131
(dp132
g15
(lp133
sg9
(lp134
sg17
(lp135
sg24
g48
sg26
(lp136
sba(iTFClasses
function
p137
(dp138
g15
(lp139
F0.05114520396861148
aF0.0006877751141693192
asg9
(lp140
F-1.2457030143978285
aF1.0218576065512148
asg17
(lp141
sg24
g55
sg26
(lp142
g57
ag48
asba(iTFClasses
function
p143
(dp144
g15
(lp145
F0.8578409406233123
aF0.005839239003828011
aF0.0010762789259688326
asg9
(lp146
F-8.682927506871704e-06
aF0.8525773405643755
aF0.054706007491853004
asg17
(lp147
sg24
g63
sg26
(lp148
g57
ag57
ag57
asba(iTFClasses
function
p149
(dp150
g15
(lp151
F0.12344726449667764
aF0.0014148345871967092
asg9
(lp152
F-4.314426624169067
aF1.0000989621523377
asg17
(lp153
sg24
g55
sg26
(lp154
g57
ag48
asba(iTFClasses
function
p155
(dp156
g15
(lp157
F0.07569279980286286
aF0.10328845420347596
aF0.0009126687159244063
asg9
(lp158
F7.403367726735956
aF-7.990426454534335e-09
aF0.08049549280893561
asg17
(lp159
sg24
g63
sg26
(lp160
g57
ag57
ag57
asbasba(iTFClasses
TF
p161
(dp162
g5
(iTFClasses
function
p163
(dp164
g8
F0.7
sg9
(lp165
F2599.074514986721
aF32.509043546729565
aF6.130163405393518
aF23.160415676756752
aF9.817896137981341
asg11
(lp166
g13
ag14
asg15
(lp167
F167.6336295727723
aF0.15839077211238362
aF0.29568354387909945
aF9.5533952090463
aF4.562056857128183
asg17
(lp168
g19
ag20
ag21
ag22
asg23
I01
sg24
g25
sg26
(lp169
g28
ag29
ag30
ag31
ag32
asg33
g34
sg35
(lp170
g37
ag38
asbsg39
I1
sg40
g118
sg41
(lp171
(iTFClasses
function
p172
(dp173
g15
(lp174
sg9
(lp175
sg17
(lp176
sg24
g48
sg26
(lp177
sba(iTFClasses
function
p178
(dp179
g15
(lp180
F0.08591430975477125
aF0.0010892006320294858
asg9
(lp181
F-0.4289248357087961
aF1.017553572424512
asg17
(lp182
sg24
g55
sg26
(lp183
g57
ag48
asba(iTFClasses
function
p184
(dp185
g15
(lp186
F0.6284534434475215
aF0.042215545076660074
aF0.004912809442195775
asg9
(lp187
F2.8025082058369812
aF1.0375980100783166
aF0.05030337626157447
asg17
(lp188
sg24
g63
sg26
(lp189
g57
ag57
ag57
asba(iTFClasses
function
p190
(dp191
g15
(lp192
F0.2002303405440831
aF0.0022165036488460592
asg9
(lp193
F-5.625313993285741
aF0.9877408859963669
asg17
(lp194
sg24
g55
sg26
(lp195
g57
ag48
asba(iTFClasses
function
p196
(dp197
g15
(lp198
F0.14199537542072713
aF0.10749351368234687
aF0.0012854621822363079
asg9
(lp199
F6.5545029743193854
aF1.4774752239096107e-07
aF0.09047948958929805
asg17
(lp200
sg24
g63
sg26
(lp201
g57
ag57
ag57
asbasbas.